target datalayout = "e-m:e-p270:32:32-p271:32:32-p272:64:64-i64:64-i128:128-f80:128-n8:16:32:64-S128"
target triple = "x86_64-pc-linux-gnu"

%struct.enip_conn_key = type { %struct.cip_connection_triad, i32, i32 }
%struct.cip_connection_triad = type { i16, i16, i32 }

@enip_conn_hashtable = internal global ptr null, align 8
@proto_enip = internal global i32 0, align 4

; Function Attrs: null_pointer_is_valid sspstrong uwtable
define hidden void @enip_mark_connection_triad(ptr noundef %0, ptr noundef %1) #0 {
  %3 = alloca ptr, align 8
  %4 = alloca ptr, align 8
  %5 = alloca %struct.enip_conn_key, align 4
  %6 = alloca ptr, align 8
  store ptr %0, ptr %3, align 8
  store ptr %1, ptr %4, align 8
  call void @llvm.lifetime.start.p0(i64 16, ptr %5) #14
  %7 = getelementptr inbounds nuw %struct.enip_conn_key, ptr %5, i32 0, i32 0
  %8 = load ptr, ptr %4, align 8
  call void @llvm.memcpy.p0.p0.i64(ptr align 4 %7, ptr align 4 %8, i64 8, i1 false)
  %9 = getelementptr inbounds nuw %struct.enip_conn_key, ptr %5, i32 0, i32 1
  store i32 0, ptr %9, align 4
  %10 = getelementptr inbounds nuw %struct.enip_conn_key, ptr %5, i32 0, i32 2
  store i32 0, ptr %10, align 4
  call void @llvm.lifetime.start.p0(i64 8, ptr %6) #14
  %11 = load ptr, ptr @enip_conn_hashtable, align 8
  %12 = call ptr @wmem_map_lookup(ptr noundef %11, ptr noundef %5)
  store ptr %12, ptr %6, align 8
  %13 = load ptr, ptr %6, align 8
  %14 = icmp ne ptr %13, null
  br i1 %14, label %15, label %20

15:                                               ; preds = %2
  %16 = call ptr @wmem_file_scope()
  %17 = load ptr, ptr %3, align 8
  %18 = load i32, ptr @proto_enip, align 4
  %19 = load ptr, ptr %6, align 8
  call void @p_add_proto_data(ptr noundef %16, ptr noundef %17, i32 noundef %18, i32 noundef 1, ptr noundef %19)
  br label %20

20:                                               ; preds = %15, %2
  call void @llvm.lifetime.end.p0(i64 8, ptr %6) #14
  call void @llvm.lifetime.end.p0(i64 16, ptr %5) #14
  ret void
}