; Function Attrs: null_pointer_is_valid sspstrong uwtable
define hidden void @enip_mark_connection_triad(ptr noundef %0, ptr noundef readonly captures(none) %1) local_unnamed_addr #0 {
  %3 = alloca %struct.enip_conn_key, align 8
  call void @llvm.lifetime.start.p0(i64 16, ptr nonnull %3) #12
  %4 = load i64, ptr %1, align 4
  store i64 %4, ptr %3, align 8
  %5 = getelementptr inbounds nuw i8, ptr %3, i64 8
  store i32 0, ptr %5, align 8
  %6 = getelementptr inbounds nuw i8, ptr %3, i64 12
  store i32 0, ptr %6, align 4
  %7 = load ptr, ptr @enip_conn_hashtable, align 8
  %8 = call ptr @wmem_map_lookup(ptr noundef %7, ptr noundef nonnull %3)
  %.not = icmp eq ptr %8, null
  br i1 %.not, label %12, label %9

9:                                                ; preds = %2
  %10 = call ptr @wmem_file_scope()
  %11 = load i32, ptr @proto_enip, align 4
  call void @p_add_proto_data(ptr noundef %10, ptr noundef %0, i32 noundef %11, i32 noundef 1, ptr noundef nonnull %8)
  br label %12

12:                                               ; preds = %9, %2
  call void @llvm.lifetime.end.p0(i64 16, ptr nonnull %3) #12
  ret void
}